target datalayout = "e-m:e-p270:32:32-p271:32:32-p272:64:64-i64:64-i128:128-f80:128-n8:16:32:64-S128"
target triple = "x86_64-pc-linux-gnu"

%struct.pmix_mca_base_component_2_1_0_t = type { i32, i32, i32, [16 x i8], i32, i32, i32, [32 x i8], i32, i32, i32, [64 x i8], i32, i32, i32, ptr, ptr, ptr, ptr, [32 x i8] }
%struct.timespec = type { i64, i64 }
%struct.prte_mca_plm_ssh_component_t = type { %struct.pmix_mca_base_component_2_1_0_t, i8, i8, i8, i8, i8, i8, i8, %struct.timespec, i32, i8, i32, ptr, ptr, ptr, i8, i8, ptr, ptr, ptr }

@environ = external global ptr, align 8

; Function Attrs: nounwind uwtable
define ptr @prte_plm_ssh_search(ptr noundef %0, ptr noundef %1) #0 {
  %3 = alloca ptr, align 8
  %4 = alloca ptr, align 8
  %5 = alloca ptr, align 8
  %6 = alloca i32, align 4
  %7 = alloca i32, align 4
  %8 = alloca ptr, align 8
  %9 = alloca ptr, align 8
  %10 = alloca ptr, align 8
  %11 = alloca ptr, align 8
  %12 = alloca [4097 x i8], align 16
  %13 = alloca i32, align 4
  store ptr %0, ptr %4, align 8, !tbaa !18
  store ptr %1, ptr %5, align 8, !tbaa !18
  call void @llvm.lifetime.start.p0(i64 4, ptr %6) #6
  call void @llvm.lifetime.start.p0(i64 4, ptr %7) #6
  call void @llvm.lifetime.start.p0(i64 8, ptr %8) #6
  call void @llvm.lifetime.start.p0(i64 8, ptr %9) #6
  call void @llvm.lifetime.start.p0(i64 8, ptr %10) #6
  call void @llvm.lifetime.start.p0(i64 8, ptr %11) #6
  call void @llvm.lifetime.start.p0(i64 4097, ptr %12) #6
  %14 = load ptr, ptr %4, align 8, !tbaa !18
  %15 = icmp eq ptr null, %14
  br i1 %15, label %16, label %20

16:                                               ; preds = %2
  %17 = load ptr, ptr getelementptr inbounds nuw (%struct.prte_mca_plm_ssh_component_t, ptr @prte_mca_plm_ssh_component, i32 0, i32 12), align 8, !tbaa !43
  %18 = icmp eq ptr null, %17
  br i1 %18, label %19, label %20

19:                                               ; preds = %16
  store ptr null, ptr %3, align 8
  store i32 1, ptr %13, align 4
  br label %146

20:                                               ; preds = %16, %2
  %21 = load ptr, ptr %5, align 8, !tbaa !18
  %22 = icmp eq ptr null, %21
  br i1 %22, label %23, label %26

23:                                               ; preds = %20
  %24 = getelementptr inbounds [4097 x i8], ptr %12, i64 0, i64 0
  %25 = call ptr @getcwd(ptr noundef %24, i64 noundef 4097) #6
  br label %29

26:                                               ; preds = %20
  %27 = getelementptr inbounds [4097 x i8], ptr %12, i64 0, i64 0
  %28 = load ptr, ptr %5, align 8, !tbaa !18
  call void @pmix_string_copy(ptr noundef %27, ptr noundef %28, i64 noundef 4097)
  br label %29

29:                                               ; preds = %26, %23
  %30 = load ptr, ptr %4, align 8, !tbaa !18
  %31 = icmp eq ptr null, %30
  br i1 %31, label %32, label %35

32:                                               ; preds = %29
  %33 = load ptr, ptr getelementptr inbounds nuw (%struct.prte_mca_plm_ssh_component_t, ptr @prte_mca_plm_ssh_component, i32 0, i32 12), align 8, !tbaa !43
  %34 = call ptr @PMIx_Argv_split(ptr noundef %33, i32 noundef 58)
  store ptr %34, ptr %9, align 8, !tbaa !66
  br label %38

35:                                               ; preds = %29
  %36 = load ptr, ptr %4, align 8, !tbaa !18
  %37 = call ptr @PMIx_Argv_split(ptr noundef %36, i32 noundef 58)
  store ptr %37, ptr %9, align 8, !tbaa !66
  br label %38

38:                                               ; preds = %35, %32
  store i32 0, ptr %6, align 4, !tbaa !26
  br label %39

39:                                               ; preds = %141, %38
  %40 = load ptr, ptr %9, align 8, !tbaa !66
  %41 = load i32, ptr %6, align 4, !tbaa !26
  %42 = sext i32 %41 to i64
  %43 = getelementptr inbounds ptr, ptr %40, i64 %42
  %44 = load ptr, ptr %43, align 8, !tbaa !18
  %45 = icmp ne ptr null, %44
  br i1 %45, label %46, label %144

46:                                               ; preds = %39
  %47 = load ptr, ptr %9, align 8, !tbaa !66
  %48 = load i32, ptr %6, align 4, !tbaa !26
  %49 = sext i32 %48 to i64
  %50 = getelementptr inbounds ptr, ptr %47, i64 %49
  %51 = load ptr, ptr %50, align 8, !tbaa !18
  store ptr %51, ptr %8, align 8, !tbaa !18
  store i32 0, ptr %7, align 4, !tbaa !26
  br label %52

52:                                               ; preds = %78, %46
  %53 = load ptr, ptr %8, align 8, !tbaa !18
  %54 = load i32, ptr %7, align 4, !tbaa !26
  %55 = sext i32 %54 to i64
  %56 = getelementptr inbounds i8, ptr %53, i64 %55
  %57 = load i8, ptr %56, align 1, !tbaa !20
  %58 = sext i8 %57 to i32
  %59 = icmp ne i32 0, %58
  br i1 %59, label %60, label %75

60:                                               ; preds = %52
  %61 = call ptr @__ctype_b_loc() #8
  %62 = load ptr, ptr %61, align 8, !tbaa !67
  %63 = load ptr, ptr %8, align 8, !tbaa !18
  %64 = load i32, ptr %7, align 4, !tbaa !26
  %65 = sext i32 %64 to i64
  %66 = getelementptr inbounds i8, ptr %63, i64 %65
  %67 = load i8, ptr %66, align 1, !tbaa !20
  %68 = sext i8 %67 to i32
  %69 = sext i32 %68 to i64
  %70 = getelementptr inbounds i16, ptr %62, i64 %69
  %71 = load i16, ptr %70, align 2, !tbaa !69
  %72 = zext i16 %71 to i32
  %73 = and i32 %72, 8192
  %74 = icmp ne i32 %73, 0
  br label %75

75:                                               ; preds = %60, %52
  %76 = phi i1 [ false, %52 ], [ %74, %60 ]
  br i1 %76, label %77, label %81

77:                                               ; preds = %75
  br label %78

78:                                               ; preds = %77
  %79 = load ptr, ptr %8, align 8, !tbaa !18
  %80 = getelementptr inbounds nuw i8, ptr %79, i32 1
  store ptr %80, ptr %8, align 8, !tbaa !18
  br label %52, !llvm.loop !71

81:                                               ; preds = %75
  %82 = load ptr, ptr %8, align 8, !tbaa !18
  %83 = call i64 @strlen(ptr noundef %82) #7
  %84 = sub i64 %83, 2
  %85 = trunc i64 %84 to i32
  store i32 %85, ptr %7, align 4, !tbaa !26
  br label %86

86:                                               ; preds = %111, %81
  %87 = load i32, ptr %7, align 4, !tbaa !26
  %88 = icmp sgt i32 %87, 0
  br i1 %88, label %89, label %104

89:                                               ; preds = %86
  %90 = call ptr @__ctype_b_loc() #8
  %91 = load ptr, ptr %90, align 8, !tbaa !67
  %92 = load ptr, ptr %8, align 8, !tbaa !18
  %93 = load i32, ptr %7, align 4, !tbaa !26
  %94 = sext i32 %93 to i64
  %95 = getelementptr inbounds i8, ptr %92, i64 %94
  %96 = load i8, ptr %95, align 1, !tbaa !20
  %97 = sext i8 %96 to i32
  %98 = sext i32 %97 to i64
  %99 = getelementptr inbounds i16, ptr %91, i64 %98
  %100 = load i16, ptr %99, align 2, !tbaa !69
  %101 = zext i16 %100 to i32
  %102 = and i32 %101, 8192
  %103 = icmp ne i32 %102, 0
  br label %104

104:                                              ; preds = %89, %86
  %105 = phi i1 [ false, %86 ], [ %103, %89 ]
  br i1 %105, label %106, label %114

106:                                              ; preds = %104
  %107 = load ptr, ptr %8, align 8, !tbaa !18
  %108 = load i32, ptr %7, align 4, !tbaa !26
  %109 = sext i32 %108 to i64
  %110 = getelementptr inbounds i8, ptr %107, i64 %109
  store i8 0, ptr %110, align 1, !tbaa !20
  br label %111

111:                                              ; preds = %106
  %112 = load i32, ptr %7, align 4, !tbaa !26
  %113 = add nsw i32 %112, 1
  store i32 %113, ptr %7, align 4, !tbaa !26
  br label %86, !llvm.loop !73

114:                                              ; preds = %104
  %115 = load ptr, ptr %8, align 8, !tbaa !18
  %116 = call i64 @strlen(ptr noundef %115) #7
  %117 = icmp ule i64 %116, 0
  br i1 %117, label %118, label %119

118:                                              ; preds = %114
  br label %141

119:                                              ; preds = %114
  %120 = load ptr, ptr %8, align 8, !tbaa !18
  %121 = call ptr @PMIx_Argv_split(ptr noundef %120, i32 noundef 32)
  store ptr %121, ptr %10, align 8, !tbaa !66
  %122 = load ptr, ptr %10, align 8, !tbaa !66
  %123 = getelementptr inbounds ptr, ptr %122, i64 0
  %124 = load ptr, ptr %123, align 8, !tbaa !18
  %125 = load ptr, ptr @environ, align 8, !tbaa !66
  %126 = getelementptr inbounds [4097 x i8], ptr %12, i64 0, i64 0
  %127 = call noalias ptr @pmix_path_findv(ptr noundef %124, i32 noundef 1, ptr noundef %125, ptr noundef %126)
  store ptr %127, ptr %11, align 8, !tbaa !18
  %128 = load ptr, ptr %11, align 8, !tbaa !18
  %129 = icmp ne ptr null, %128
  br i1 %129, label %130, label %139

130:                                              ; preds = %119
  %131 = load ptr, ptr %10, align 8, !tbaa !66
  %132 = getelementptr inbounds ptr, ptr %131, i64 0
  %133 = load ptr, ptr %132, align 8, !tbaa !18
  call void @free(ptr noundef %133) #6
  %134 = load ptr, ptr %11, align 8, !tbaa !18
  %135 = load ptr, ptr %10, align 8, !tbaa !66
  %136 = getelementptr inbounds ptr, ptr %135, i64 0
  store ptr %134, ptr %136, align 8, !tbaa !18
  %137 = load ptr, ptr %9, align 8, !tbaa !66
  call void @PMIx_Argv_free(ptr noundef %137)
  %138 = load ptr, ptr %10, align 8, !tbaa !66
  store ptr %138, ptr %3, align 8
  store i32 1, ptr %13, align 4
  br label %146

139:                                              ; preds = %119
  %140 = load ptr, ptr %10, align 8, !tbaa !66
  call void @PMIx_Argv_free(ptr noundef %140)
  br label %141

141:                                              ; preds = %139, %118
  %142 = load i32, ptr %6, align 4, !tbaa !26
  %143 = add nsw i32 %142, 1
  store i32 %143, ptr %6, align 4, !tbaa !26
  br label %39, !llvm.loop !74

144:                                              ; preds = %39
  %145 = load ptr, ptr %9, align 8, !tbaa !66
  call void @PMIx_Argv_free(ptr noundef %145)
  store ptr null, ptr %3, align 8
  store i32 1, ptr %13, align 4
  br label %146

146:                                              ; preds = %144, %130, %19
  call void @llvm.lifetime.end.p0(i64 4097, ptr %12) #6
  call void @llvm.lifetime.end.p0(i64 8, ptr %11) #6
  call void @llvm.lifetime.end.p0(i64 8, ptr %10) #6
  call void @llvm.lifetime.end.p0(i64 8, ptr %9) #6
  call void @llvm.lifetime.end.p0(i64 8, ptr %8) #6
  call void @llvm.lifetime.end.p0(i64 4, ptr %7) #6
  call void @llvm.lifetime.end.p0(i64 4, ptr %6) #6
  %147 = load ptr, ptr %3, align 8
  ret ptr %147
}