; Function Attrs: nounwind uwtable
define noundef ptr @prte_plm_ssh_search(ptr noundef %0, ptr noundef %1) local_unnamed_addr #0 {
  %3 = alloca [4097 x i8], align 16
  call void @llvm.lifetime.start.p0(i64 4097, ptr nonnull %3) #13
  %4 = icmp eq ptr %0, null
  %5 = load ptr, ptr getelementptr inbounds nuw (i8, ptr @prte_mca_plm_ssh_component, i64 264), align 8
  %6 = icmp eq ptr %5, null
  %or.cond = select i1 %4, i1 %6, i1 false
  br i1 %or.cond, label %62, label %7

7:                                                ; preds = %2
  %8 = icmp eq ptr %1, null
  br i1 %8, label %9, label %11

9:                                                ; preds = %7
  %10 = call ptr @getcwd(ptr noundef nonnull %3, i64 noundef 4097) #13
  br label %12

11:                                               ; preds = %7
  call void @pmix_string_copy(ptr noundef nonnull %3, ptr noundef nonnull %1, i64 noundef 4097) #13
  br label %12

12:                                               ; preds = %11, %9
  %13 = load ptr, ptr getelementptr inbounds nuw (i8, ptr @prte_mca_plm_ssh_component, i64 264), align 8
  %.sink = select i1 %4, ptr %13, ptr %0
  %14 = call ptr @PMIx_Argv_split(ptr noundef %.sink, i32 noundef 58) #13
  %15 = load ptr, ptr %14, align 8, !tbaa !18
  %.not57 = icmp eq ptr %15, null
  br i1 %.not57, label %.sink.split, label %.preheader

.preheader:                                       ; preds = %12, %59
  %indvars.iv61 = phi i64 [ %indvars.iv.next62, %59 ], [ 0, %12 ]
  %16 = phi ptr [ %61, %59 ], [ %15, %12 ]
  %17 = load i8, ptr %16, align 1, !tbaa !19
  %.not4550 = icmp eq i8 %17, 0
  br i1 %.not4550, label %.critedge, label %.lr.ph

.lr.ph:                                           ; preds = %.preheader
  %18 = tail call ptr @__ctype_b_loc() #15
  %19 = load ptr, ptr %18, align 8, !tbaa !56
  br label %20

20:                                               ; preds = %.lr.ph, %26
  %21 = phi i8 [ %17, %.lr.ph ], [ %28, %26 ]
  %.03851 = phi ptr [ %16, %.lr.ph ], [ %27, %26 ]
  %22 = sext i8 %21 to i64
  %23 = getelementptr inbounds i16, ptr %19, i64 %22
  %24 = load i16, ptr %23, align 2, !tbaa !58
  %25 = and i16 %24, 8192
  %.not46 = icmp eq i16 %25, 0
  br i1 %.not46, label %.critedge, label %26

26:                                               ; preds = %20
  %27 = getelementptr inbounds nuw i8, ptr %.03851, i64 1
  %28 = load i8, ptr %27, align 1, !tbaa !19
  %.not45 = icmp eq i8 %28, 0
  br i1 %.not45, label %.critedge, label %20, !llvm.loop !60

.critedge:                                        ; preds = %20, %26, %.preheader
  %char066 = phi i8 [ 0, %.preheader ], [ 0, %26 ], [ %21, %20 ]
  %.038.lcssa = phi ptr [ %16, %.preheader ], [ %27, %26 ], [ %.03851, %20 ]
  %29 = call i64 @strlen(ptr noundef nonnull dereferenceable(1) %.038.lcssa) #14
  %30 = trunc i64 %29 to i32
  %31 = add i32 %30, -2
  %32 = icmp sgt i32 %31, 0
  br i1 %32, label %.lr.ph55, label %.critedge3

.lr.ph55:                                         ; preds = %.critedge
  %33 = tail call ptr @__ctype_b_loc() #15
  %34 = zext nneg i32 %31 to i64
  %35 = load ptr, ptr %33, align 8, !tbaa !56
  %36 = getelementptr inbounds nuw i8, ptr %.038.lcssa, i64 %34
  %37 = load i8, ptr %36, align 1, !tbaa !19
  %38 = sext i8 %37 to i64
  %39 = getelementptr inbounds i16, ptr %35, i64 %38
  %40 = load i16, ptr %39, align 2, !tbaa !58
  %41 = and i16 %40, 8192
  %.not4769 = icmp eq i16 %41, 0
  br i1 %.not4769, label %.critedge3.loopexit, label %.lr.ph71

.lr.ph71:                                         ; preds = %.lr.ph55, %.lr.ph71
  %42 = phi ptr [ %44, %.lr.ph71 ], [ %36, %.lr.ph55 ]
  %indvars.iv70 = phi i64 [ %indvars.iv.next, %.lr.ph71 ], [ %34, %.lr.ph55 ]
  store i8 0, ptr %42, align 1, !tbaa !19
  %indvars.iv.next = add nuw nsw i64 %indvars.iv70, 1
  %43 = load ptr, ptr %33, align 8, !tbaa !56
  %44 = getelementptr inbounds nuw i8, ptr %.038.lcssa, i64 %indvars.iv.next
  %45 = load i8, ptr %44, align 1, !tbaa !19
  %46 = sext i8 %45 to i64
  %47 = getelementptr inbounds i16, ptr %43, i64 %46
  %48 = load i16, ptr %47, align 2, !tbaa !58
  %49 = and i16 %48, 8192
  %.not47 = icmp eq i16 %49, 0
  br i1 %.not47, label %.critedge3.loopexit, label %.lr.ph71

.critedge3.loopexit:                              ; preds = %.lr.ph71, %.lr.ph55
  %char0.pre = load i8, ptr %.038.lcssa, align 1
  br label %.critedge3

.critedge3:                                       ; preds = %.critedge3.loopexit, %.critedge
  %char0 = phi i8 [ %char0.pre, %.critedge3.loopexit ], [ %char066, %.critedge ]
  %50 = icmp eq i8 %char0, 0
  br i1 %50, label %59, label %51

51:                                               ; preds = %.critedge3
  %52 = call ptr @PMIx_Argv_split(ptr noundef nonnull %.038.lcssa, i32 noundef 32) #13
  %53 = load ptr, ptr %52, align 8, !tbaa !18
  %54 = load ptr, ptr @environ, align 8, !tbaa !62
  %55 = call noalias ptr @pmix_path_findv(ptr noundef %53, i32 noundef 1, ptr noundef %54, ptr noundef nonnull %3) #13
  %.not48 = icmp eq ptr %55, null
  br i1 %.not48, label %58, label %56

56:                                               ; preds = %51
  %57 = load ptr, ptr %52, align 8, !tbaa !18
  call void @free(ptr noundef %57) #13
  store ptr %55, ptr %52, align 8, !tbaa !18
  br label %.sink.split

58:                                               ; preds = %51
  call void @PMIx_Argv_free(ptr noundef nonnull %52) #13
  br label %59

59:                                               ; preds = %.critedge3, %58
  %indvars.iv.next62 = add nuw nsw i64 %indvars.iv61, 1
  %60 = getelementptr inbounds nuw ptr, ptr %14, i64 %indvars.iv.next62
  %61 = load ptr, ptr %60, align 8, !tbaa !18
  %.not = icmp eq ptr %61, null
  br i1 %.not, label %.sink.split, label %.preheader, !llvm.loop !63

.sink.split:                                      ; preds = %59, %12, %56
  %.0.ph = phi ptr [ %52, %56 ], [ null, %12 ], [ null, %59 ]
  call void @PMIx_Argv_free(ptr noundef nonnull %14) #13
  br label %62

62:                                               ; preds = %.sink.split, %2
  %.0 = phi ptr [ null, %2 ], [ %.0.ph, %.sink.split ]
  call void @llvm.lifetime.end.p0(i64 4097, ptr nonnull %3) #13
  ret ptr %.0
}